; Function Attrs: nounwind uwtable
define noalias noundef ptr @Llb_Nonlin4CreateVars2Q(ptr noundef %0, ptr noundef readonly captures(none) %1, ptr noundef readonly captures(none) %2, i32 noundef %3) local_unnamed_addr #0 {
  %calloc = tail call dereferenceable_or_null(16) ptr @calloc(i64 1, i64 16)
  %5 = getelementptr inbounds nuw i8, ptr %calloc, i64 4
  %6 = tail call i32 @Cudd_ReadSize(ptr noundef %0) #18
  %.not.i.i = icmp sgt i32 %6, 0
  br i1 %.not.i.i, label %.lr.ph.i, label %Vec_IntFill.exit

.lr.ph.i:                                         ; preds = %4
  %7 = getelementptr inbounds nuw i8, ptr %calloc, i64 8
  %8 = zext nneg i32 %6 to i64
  %9 = shl nuw nsw i64 %8, 2
  %10 = tail call noalias ptr @malloc(i64 noundef %9) #19
  store ptr %10, ptr %7, align 8, !tbaa !27
  store i32 %6, ptr %calloc, align 8, !tbaa !54
  br label %11

11:                                               ; preds = %11, %.lr.ph.i
  %indvars.iv.i = phi i64 [ 0, %.lr.ph.i ], [ %indvars.iv.next.i, %11 ]
  %12 = getelementptr inbounds nuw i32, ptr %10, i64 %indvars.iv.i
  store i32 1, ptr %12, align 4, !tbaa !30
  %indvars.iv.next.i = add nuw nsw i64 %indvars.iv.i, 1
  %exitcond.not.i = icmp eq i64 %indvars.iv.next.i, %8
  br i1 %exitcond.not.i, label %Vec_IntFill.exit, label %11, !llvm.loop !65

Vec_IntFill.exit:                                 ; preds = %11, %4
  %.val16 = phi ptr [ null, %4 ], [ %10, %11 ]
  store i32 %6, ptr %5, align 4, !tbaa !55
  %13 = getelementptr i8, ptr %1, i64 104
  %.val1521 = load i32, ptr %13, align 8, !tbaa !45
  %14 = icmp sgt i32 %.val1521, 0
  br i1 %14, label %.lr.ph, label %.critedge

.lr.ph:                                           ; preds = %Vec_IntFill.exit
  %15 = getelementptr i8, ptr %1, i64 24
  %.val17 = load ptr, ptr %15, align 8, !tbaa !33
  %16 = getelementptr i8, ptr %.val17, i64 8
  %.val17.val = load ptr, ptr %16, align 8, !tbaa !25
  %17 = getelementptr i8, ptr %1, i64 16
  %.val19 = load ptr, ptr %17, align 8, !tbaa !22
  %18 = getelementptr i8, ptr %.val19, i64 8
  %.val19.val = load ptr, ptr %18, align 8, !tbaa !25
  %.not = icmp eq i32 %3, 0
  %19 = getelementptr i8, ptr %2, i64 8
  %.val = load ptr, ptr %19, align 8, !tbaa !27
  br i1 %.not, label %.lr.ph.split.us.preheader, label %.lr.ph.split.preheader

.lr.ph.split.preheader:                           ; preds = %.lr.ph
  %20 = getelementptr i8, ptr %1, i64 108
  %.val20.pre = load i32, ptr %20, align 4, !tbaa !41
  br label %.lr.ph.split

.lr.ph.split.us.preheader:                        ; preds = %.lr.ph
  %21 = getelementptr i8, ptr %1, i64 112
  %.val18.us.pre = load i32, ptr %21, align 8, !tbaa !34
  br label %.lr.ph.split.us

.lr.ph.split.us:                                  ; preds = %.lr.ph.split.us.preheader, %.lr.ph.split.us
  %.022.us = phi i32 [ %32, %.lr.ph.split.us ], [ 0, %.lr.ph.split.us.preheader ]
  %22 = add nsw i32 %.val18.us.pre, %.022.us
  %23 = sext i32 %22 to i64
  %24 = getelementptr inbounds ptr, ptr %.val17.val, i64 %23
  %25 = load ptr, ptr %24, align 8, !tbaa !26
  %26 = getelementptr i8, ptr %25, i64 36
  %.val14.us = load i32, ptr %26, align 4, !tbaa !29
  %27 = sext i32 %.val14.us to i64
  %28 = getelementptr inbounds i32, ptr %.val, i64 %27
  %29 = load i32, ptr %28, align 4, !tbaa !30
  %30 = sext i32 %29 to i64
  %31 = getelementptr inbounds i32, ptr %.val16, i64 %30
  store i32 0, ptr %31, align 4, !tbaa !30
  %32 = add nuw nsw i32 %.022.us, 1
  %33 = icmp slt i32 %32, %.val1521
  br i1 %33, label %.lr.ph.split.us, label %.critedge, !llvm.loop !66

.lr.ph.split:                                     ; preds = %.lr.ph.split.preheader, %.lr.ph.split
  %.022 = phi i32 [ %44, %.lr.ph.split ], [ 0, %.lr.ph.split.preheader ]
  %34 = add nsw i32 %.val20.pre, %.022
  %35 = sext i32 %34 to i64
  %36 = getelementptr inbounds ptr, ptr %.val19.val, i64 %35
  %37 = load ptr, ptr %36, align 8, !tbaa !26
  %38 = getelementptr i8, ptr %37, i64 36
  %.val14 = load i32, ptr %38, align 4, !tbaa !29
  %39 = sext i32 %.val14 to i64
  %40 = getelementptr inbounds i32, ptr %.val, i64 %39
  %41 = load i32, ptr %40, align 4, !tbaa !30
  %42 = sext i32 %41 to i64
  %43 = getelementptr inbounds i32, ptr %.val16, i64 %42
  store i32 0, ptr %43, align 4, !tbaa !30
  %44 = add nuw nsw i32 %.022, 1
  %45 = icmp slt i32 %44, %.val1521
  br i1 %45, label %.lr.ph.split, label %.critedge, !llvm.loop !66

.critedge:                                        ; preds = %.lr.ph.split, %.lr.ph.split.us, %Vec_IntFill.exit
  ret ptr %calloc
}